; Function Attrs: nounwind uwtable
define ptr @l_Lean_PrettyPrinter_initFn____x40_Lean_PrettyPrinter___hyg_1084____lambda__2(ptr noundef %0, ptr noundef %1, ptr noundef %2) #0 {
  tail call void @lean_inc_heartbeat() #6
  %4 = tail call noalias ptr @mi_malloc_small(i64 noundef 32) #6
  %5 = icmp eq ptr %4, null
  br i1 %5, label %6, label %lean_alloc_closure.exit

6:                                                ; preds = %3
  tail call void @lean_internal_panic_out_of_memory() #7
  unreachable

lean_alloc_closure.exit:                          ; preds = %3
  %7 = getelementptr inbounds nuw i8, ptr %4, i64 4
  store i32 1, ptr %4, align 4, !tbaa !4
  store i32 -184549344, ptr %7, align 4
  %8 = getelementptr inbounds nuw i8, ptr %4, i64 8
  store ptr @l_Lean_PrettyPrinter_ppConstNameWithInfos, ptr %8, align 8, !tbaa !9
  %9 = getelementptr inbounds nuw i8, ptr %4, i64 16
  store i16 6, ptr %9, align 8, !tbaa !15
  %10 = getelementptr inbounds nuw i8, ptr %4, i64 18
  store i16 1, ptr %10, align 2, !tbaa !15
  %11 = getelementptr inbounds nuw i8, ptr %4, i64 24
  store ptr %1, ptr %11, align 8, !tbaa !9
  tail call void @lean_inc_heartbeat() #6
  %12 = tail call noalias ptr @mi_malloc_small(i64 noundef 32) #6
  %13 = icmp eq ptr %12, null
  br i1 %13, label %14, label %lean_alloc_closure.exit8

14:                                               ; preds = %lean_alloc_closure.exit
  tail call void @lean_internal_panic_out_of_memory() #7
  unreachable

lean_alloc_closure.exit8:                         ; preds = %lean_alloc_closure.exit
  %15 = getelementptr inbounds nuw i8, ptr %12, i64 4
  store i32 1, ptr %12, align 4, !tbaa !4
  store i32 -184549344, ptr %15, align 4
  %16 = getelementptr inbounds nuw i8, ptr %12, i64 8
  store ptr @l___private_Lean_PrettyPrinter_0__Lean_PrettyPrinter_withoutContext___at_Lean_PrettyPrinter_initFn____x40_Lean_PrettyPrinter___hyg_1084____spec__1, ptr %16, align 8, !tbaa !9
  %17 = getelementptr inbounds nuw i8, ptr %12, i64 16
  store i16 6, ptr %17, align 8, !tbaa !15
  %18 = getelementptr inbounds nuw i8, ptr %12, i64 18
  store i16 1, ptr %18, align 2, !tbaa !15
  %19 = getelementptr inbounds nuw i8, ptr %12, i64 24
  store ptr %4, ptr %19, align 8, !tbaa !9
  %20 = tail call ptr @l_Lean_PPContext_runMetaM___rarg(ptr noundef %0, ptr noundef nonnull %12, ptr noundef %2)
  ret ptr %20
}